target datalayout = "e-m:e-p270:32:32-p271:32:32-p272:64:64-i64:64-i128:128-f80:128-n8:16:32:64-S128"
target triple = "x86_64-pc-linux-gnu"

%struct.stbvox_mesh_face = type { i8, i8, i8, i8 }
%struct.stbvox_mesh_maker = type { %struct.stbvox_input_description, i32, i32, i32, i32, i32, i32, i32, i32, i32, i32, i32, i32, i32, i32, [6 x [4 x i32]], [6 x [4 x i32]], i32, i32, i32, i32, [2 x [3 x ptr]], [2 x [3 x ptr]], [2 x [3 x ptr]], [2 x [3 x i32]], [2 x [3 x i32]], [2 x [3 x i32]], i32, [128 x [2 x float]] }
%struct.stbvox_input_description = type { i8, ptr, ptr, ptr, ptr, ptr, ptr, ptr, ptr, ptr, ptr, ptr, ptr, ptr, ptr, ptr, ptr, ptr, ptr, ptr, ptr, ptr, ptr, ptr, ptr, ptr, ptr, ptr, ptr, ptr, ptr, ptr, ptr, ptr, ptr, ptr, ptr, ptr, ptr, ptr, ptr, ptr, ptr }

; Function Attrs: nounwind uwtable
define void @stbvox_get_quad_vertex_pointer(ptr noundef %0, i32 noundef %1, ptr noundef %2, i32 %3) #0 {
  %5 = alloca %struct.stbvox_mesh_face, align 1
  %6 = alloca ptr, align 8
  %7 = alloca i32, align 4
  %8 = alloca ptr, align 8
  %9 = alloca ptr, align 8
  %10 = alloca i32, align 4
  store i32 %3, ptr %5, align 1
  store ptr %0, ptr %6, align 8, !tbaa !20
  store i32 %1, ptr %7, align 4, !tbaa !3
  store ptr %2, ptr %8, align 8, !tbaa !56
  call void @llvm.lifetime.start.p0(i64 8, ptr %9) #4
  %11 = load ptr, ptr %6, align 8, !tbaa !20
  %12 = getelementptr inbounds nuw %struct.stbvox_mesh_maker, ptr %11, i32 0, i32 21
  %13 = load i32, ptr %7, align 4, !tbaa !3
  %14 = sext i32 %13 to i64
  %15 = getelementptr inbounds [2 x [3 x ptr]], ptr %12, i64 0, i64 %14
  %16 = getelementptr inbounds [3 x ptr], ptr %15, i64 0, i64 0
  %17 = load ptr, ptr %16, align 8, !tbaa !12
  store ptr %17, ptr %9, align 8, !tbaa !12
  call void @llvm.lifetime.start.p0(i64 4, ptr %10) #4
  %18 = load ptr, ptr %6, align 8, !tbaa !20
  %19 = getelementptr inbounds nuw %struct.stbvox_mesh_maker, ptr %18, i32 0, i32 26
  %20 = load i32, ptr %7, align 4, !tbaa !3
  %21 = sext i32 %20 to i64
  %22 = getelementptr inbounds [2 x [3 x i32]], ptr %19, i64 0, i64 %21
  %23 = getelementptr inbounds [3 x i32], ptr %22, i64 0, i64 0
  %24 = load i32, ptr %23, align 4, !tbaa !3
  store i32 %24, ptr %10, align 4, !tbaa !3
  %25 = load ptr, ptr %9, align 8, !tbaa !12
  %26 = load ptr, ptr %8, align 8, !tbaa !56
  %27 = getelementptr inbounds ptr, ptr %26, i64 0
  store ptr %25, ptr %27, align 8, !tbaa !58
  %28 = load i32, ptr %10, align 4, !tbaa !3
  %29 = load ptr, ptr %9, align 8, !tbaa !12
  %30 = sext i32 %28 to i64
  %31 = getelementptr inbounds i8, ptr %29, i64 %30
  store ptr %31, ptr %9, align 8, !tbaa !12
  %32 = load ptr, ptr %9, align 8, !tbaa !12
  %33 = load ptr, ptr %8, align 8, !tbaa !56
  %34 = getelementptr inbounds ptr, ptr %33, i64 1
  store ptr %32, ptr %34, align 8, !tbaa !58
  %35 = load i32, ptr %10, align 4, !tbaa !3
  %36 = load ptr, ptr %9, align 8, !tbaa !12
  %37 = sext i32 %35 to i64
  %38 = getelementptr inbounds i8, ptr %36, i64 %37
  store ptr %38, ptr %9, align 8, !tbaa !12
  %39 = load ptr, ptr %9, align 8, !tbaa !12
  %40 = load ptr, ptr %8, align 8, !tbaa !56
  %41 = getelementptr inbounds ptr, ptr %40, i64 2
  store ptr %39, ptr %41, align 8, !tbaa !58
  %42 = load i32, ptr %10, align 4, !tbaa !3
  %43 = load ptr, ptr %9, align 8, !tbaa !12
  %44 = sext i32 %42 to i64
  %45 = getelementptr inbounds i8, ptr %43, i64 %44
  store ptr %45, ptr %9, align 8, !tbaa !12
  %46 = load ptr, ptr %9, align 8, !tbaa !12
  %47 = load ptr, ptr %8, align 8, !tbaa !56
  %48 = getelementptr inbounds ptr, ptr %47, i64 3
  store ptr %46, ptr %48, align 8, !tbaa !58
  %49 = load i32, ptr %10, align 4, !tbaa !3
  %50 = load ptr, ptr %9, align 8, !tbaa !12
  %51 = sext i32 %49 to i64
  %52 = getelementptr inbounds i8, ptr %50, i64 %51
  store ptr %52, ptr %9, align 8, !tbaa !12
  %53 = load ptr, ptr %9, align 8, !tbaa !12
  %54 = load ptr, ptr %6, align 8, !tbaa !20
  %55 = getelementptr inbounds nuw %struct.stbvox_mesh_maker, ptr %54, i32 0, i32 21
  %56 = load i32, ptr %7, align 4, !tbaa !3
  %57 = sext i32 %56 to i64
  %58 = getelementptr inbounds [2 x [3 x ptr]], ptr %55, i64 0, i64 %57
  %59 = getelementptr inbounds [3 x ptr], ptr %58, i64 0, i64 0
  store ptr %53, ptr %59, align 8, !tbaa !12
  %60 = load ptr, ptr %8, align 8, !tbaa !56
  %61 = getelementptr inbounds ptr, ptr %60, i64 0
  %62 = load ptr, ptr %61, align 8, !tbaa !58
  %63 = getelementptr inbounds i32, ptr %62, i64 1
  call void @llvm.memcpy.p0.p0.i64(ptr align 1 %63, ptr align 1 %5, i64 4, i1 false), !tbaa.struct !60
  %64 = load ptr, ptr %8, align 8, !tbaa !56
  %65 = getelementptr inbounds ptr, ptr %64, i64 1
  %66 = load ptr, ptr %65, align 8, !tbaa !58
  %67 = getelementptr inbounds i32, ptr %66, i64 1
  call void @llvm.memcpy.p0.p0.i64(ptr align 1 %67, ptr align 1 %5, i64 4, i1 false), !tbaa.struct !60
  %68 = load ptr, ptr %8, align 8, !tbaa !56
  %69 = getelementptr inbounds ptr, ptr %68, i64 2
  %70 = load ptr, ptr %69, align 8, !tbaa !58
  %71 = getelementptr inbounds i32, ptr %70, i64 1
  call void @llvm.memcpy.p0.p0.i64(ptr align 1 %71, ptr align 1 %5, i64 4, i1 false), !tbaa.struct !60
  %72 = load ptr, ptr %8, align 8, !tbaa !56
  %73 = getelementptr inbounds ptr, ptr %72, i64 3
  %74 = load ptr, ptr %73, align 8, !tbaa !58
  %75 = getelementptr inbounds i32, ptr %74, i64 1
  call void @llvm.memcpy.p0.p0.i64(ptr align 1 %75, ptr align 1 %5, i64 4, i1 false), !tbaa.struct !60
  call void @llvm.lifetime.end.p0(i64 4, ptr %10) #4
  call void @llvm.lifetime.end.p0(i64 8, ptr %9) #4
  ret void
}