; Function Attrs: mustprogress nofree norecurse nosync nounwind willreturn memory(write, argmem: readwrite, inaccessiblemem: none) uwtable
define void @stbvox_get_quad_vertex_pointer(ptr noundef captures(none) %0, i32 noundef %1, ptr noundef captures(none) initializes((0, 32)) %2, i32 %3) local_unnamed_addr #7 {
  %5 = getelementptr inbounds nuw i8, ptr %0, i64 608
  %6 = sext i32 %1 to i64
  %7 = getelementptr inbounds [2 x [3 x ptr]], ptr %5, i64 0, i64 %6
  %8 = load ptr, ptr %7, align 8, !tbaa !10
  %9 = getelementptr inbounds nuw i8, ptr %0, i64 800
  %10 = getelementptr inbounds [2 x [3 x i32]], ptr %9, i64 0, i64 %6
  %11 = load i32, ptr %10, align 4, !tbaa !14
  store ptr %8, ptr %2, align 8, !tbaa !47
  %12 = sext i32 %11 to i64
  %13 = getelementptr inbounds i8, ptr %8, i64 %12
  %14 = getelementptr inbounds nuw i8, ptr %2, i64 8
  store ptr %13, ptr %14, align 8, !tbaa !47
  %15 = getelementptr inbounds i8, ptr %13, i64 %12
  %16 = getelementptr inbounds nuw i8, ptr %2, i64 16
  store ptr %15, ptr %16, align 8, !tbaa !47
  %17 = getelementptr inbounds i8, ptr %15, i64 %12
  %18 = getelementptr inbounds nuw i8, ptr %2, i64 24
  store ptr %17, ptr %18, align 8, !tbaa !47
  %19 = getelementptr inbounds i8, ptr %17, i64 %12
  store ptr %19, ptr %7, align 8, !tbaa !10
  %20 = getelementptr inbounds nuw i8, ptr %8, i64 4
  store i32 %3, ptr %20, align 1
  %21 = load ptr, ptr %14, align 8, !tbaa !47
  %22 = getelementptr inbounds nuw i8, ptr %21, i64 4
  store i32 %3, ptr %22, align 1
  %23 = load ptr, ptr %16, align 8, !tbaa !47
  %24 = getelementptr inbounds nuw i8, ptr %23, i64 4
  store i32 %3, ptr %24, align 1
  %25 = load ptr, ptr %18, align 8, !tbaa !47
  %26 = getelementptr inbounds nuw i8, ptr %25, i64 4
  store i32 %3, ptr %26, align 1
  ret void
}